target datalayout = "e-m:e-p270:32:32-p271:32:32-p272:64:64-i64:64-i128:128-f80:128-n8:16:32:64-S128"
target triple = "x86_64-pc-linux-gnu"

%class.symbol = type { ptr }
%class.params_ref = type { ptr }
%"class.(anonymous namespace)::smt_solver" = type { %class.solver_na2as, %struct.smt_params, %"class.smt::kernel", ptr, %class.symbol, i8, i8, i32, i8, [7 x i8], %class.obj_map, %class.params_ref, %struct.smt_params }
%class.solver_na2as = type { %class.solver, %class.ref_vector, %class.svector }
%class.solver = type { %class.check_sat_result, %"class.user_propagator::core", %class.params_ref, %class.symbol }
%class.check_sat_result = type { ptr, ptr, %class.ref_vector, %class.obj_ref, i32, i32, %class.ref, double }
%class.obj_ref = type { ptr, ptr }
%class.ref = type { ptr }
%"class.user_propagator::core" = type { ptr }
%class.ref_vector = type { %class.ref_vector_core }
%class.ref_vector_core = type { %class.ref_manager_wrapper, %class.ptr_vector }
%class.ref_manager_wrapper = type { ptr }
%class.ptr_vector = type { %class.vector }
%class.vector = type { ptr }
%class.svector = type { %class.vector.0 }
%class.vector.0 = type { ptr }
%"class.smt::kernel" = type { ptr }
%class.obj_map = type { %class.core_hashtable }
%class.core_hashtable = type <{ ptr, i32, i32, i32, [4 x i8] }>
%struct.smt_params = type { %struct.preprocessor_params.base, %struct.dyn_ack_params, %struct.qi_params, %struct.theory_arith_params.base, i8, %struct.theory_array_params.base, %struct.theory_bv_params, [4 x i8], %struct.theory_str_params.base, %struct.theory_seq_params, %struct.theory_pb_params.base, %struct.theory_datatype_params, i8, i8, i8, i8, i8, i8, i32, i8, i32, double, double, i32, i32, i32, i32, i32, i8, i32, i32, i32, i32, i32, i32, i8, i32, i8, i8, i8, i8, i8, %class.symbol, i8, i8, i32, i32, i8, i8, i8, i8, i32, i8, i32, i32, double, i8, double, double, i32, i8, i32, i32, double, i32, i32, i32, i32, i32, double, i8, i8, i8, i8, %class.symbol, i8, i8, i8, i8, i8, i8, i32, i8, i8, i8, i8, i8, i8, i8, i8, i8, double, i8, %class.symbol }
%struct.preprocessor_params.base = type <{ %struct.pattern_inference_params.base, %struct.bit_blaster_params, i32, i32, i8, i8, i8, i8, i8, i8, i8, i8, i8, i8, i8, i8, i8, i8, i8, i8, i8, i8, i8 }>
%struct.pattern_inference_params.base = type <{ i8, [3 x i8], i32, i8, i8, [2 x i8], i32, i8, [3 x i8], i32, i32, i8, [3 x i8], i32, i8, i8 }>
%struct.bit_blaster_params = type { i8, i8 }
%struct.dyn_ack_params = type { i32, i8, double, i32, i32, double }
%struct.qi_params = type { %"class.std::__cxx11::basic_string", %"class.std::__cxx11::basic_string", double, double, i32, i32, i8, i32, i32, i8, i8, i32, i8, i8, i8, i8, i32, i32, i32, i8, i32, ptr }
%"class.std::__cxx11::basic_string" = type { %"struct.std::__cxx11::basic_string<char>::_Alloc_hider", i64, %union.anon }
%"struct.std::__cxx11::basic_string<char>::_Alloc_hider" = type { ptr }
%union.anon = type { i64, [8 x i8] }
%struct.theory_arith_params.base = type <{ i8, i8, [2 x i8], i32, i8, [3 x i8], i32, i8, [3 x i8], i32, i8, i8, [2 x i8], i32, i32, i8, i8, [2 x i8], i32, i32, i8, [3 x i8], i32, i32, i8, [3 x i8], double, double, i8, [3 x i8], i32, i8, i8, i8, i8, i8, [3 x i8], i32, i8, i8, [2 x i8], i32, i8, [3 x i8], i32, i8, i8, i8, i8, i8, i8, [2 x i8], i32, i8, i8, [2 x i8], i32, i8, [3 x i8], i32, i8, i8, i8 }>
%struct.theory_array_params.base = type <{ i8, i8, [2 x i8], i32, i8, i8, [2 x i8], i32, i8, i8, i8, i8, i32, i8 }>
%struct.theory_bv_params = type { i32, i8, i8, i8, i8, i32, i8, i8, i8, i8, i32 }
%struct.theory_str_params.base = type <{ i8, i8, i8, i8, i8, i8, i8, i8, double, i32, i32, i32, i32, i32, i8, i8 }>
%struct.theory_seq_params = type { i8, i8, i32, i32 }
%struct.theory_pb_params.base = type <{ i32, i8 }>
%struct.theory_datatype_params = type { i32 }
%class.buffer.49 = type { ptr, i32, i32, [128 x i8] }
%class.vector.11 = type { ptr }

; Function Attrs: mustprogress uwtable
define linkonce_odr hidden noundef nonnull align 8 dereferenceable(8) ptr @_ZN6vectorI6symbolLb0EjE9push_backERKS0_(ptr noundef nonnull align 8 dereferenceable(8) %0, ptr noundef nonnull align 8 dereferenceable(8) %1) #4 comdat align 2 {
  %3 = alloca ptr, align 8
  %4 = alloca ptr, align 8
  store ptr %0, ptr %3, align 8, !tbaa !667
  store ptr %1, ptr %4, align 8, !tbaa !10
  %5 = load ptr, ptr %3, align 8
  %6 = getelementptr inbounds nuw %class.vector.11, ptr %5, i32 0, i32 0
  %7 = load ptr, ptr %6, align 8, !tbaa !670
  %8 = icmp eq ptr %7, null
  br i1 %8, label %19, label %9

9:                                                ; preds = %2
  %10 = getelementptr inbounds nuw %class.vector.11, ptr %5, i32 0, i32 0
  %11 = load ptr, ptr %10, align 8, !tbaa !670
  %12 = getelementptr inbounds i32, ptr %11, i64 -1
  %13 = load i32, ptr %12, align 4, !tbaa !182
  %14 = getelementptr inbounds nuw %class.vector.11, ptr %5, i32 0, i32 0
  %15 = load ptr, ptr %14, align 8, !tbaa !670
  %16 = getelementptr inbounds i32, ptr %15, i64 -2
  %17 = load i32, ptr %16, align 4, !tbaa !182
  %18 = icmp eq i32 %13, %17
  br i1 %18, label %19, label %20

19:                                               ; preds = %9, %2
  call void @_ZN6vectorI6symbolLb0EjE13expand_vectorEv(ptr noundef nonnull align 8 dereferenceable(8) %5)
  br label %20

20:                                               ; preds = %19, %9
  %21 = getelementptr inbounds nuw %class.vector.11, ptr %5, i32 0, i32 0
  %22 = load ptr, ptr %21, align 8, !tbaa !670
  %23 = getelementptr inbounds nuw %class.vector.11, ptr %5, i32 0, i32 0
  %24 = load ptr, ptr %23, align 8, !tbaa !670
  %25 = getelementptr inbounds i32, ptr %24, i64 -1
  %26 = load i32, ptr %25, align 4, !tbaa !182
  %27 = zext i32 %26 to i64
  %28 = getelementptr inbounds nuw %class.symbol, ptr %22, i64 %27
  %29 = load ptr, ptr %4, align 8, !tbaa !10
  call void @llvm.memcpy.p0.p0.i64(ptr align 8 %28, ptr align 8 %29, i64 8, i1 false), !tbaa.struct !85
  %30 = getelementptr inbounds nuw %class.vector.11, ptr %5, i32 0, i32 0
  %31 = load ptr, ptr %30, align 8, !tbaa !670
  %32 = getelementptr inbounds i32, ptr %31, i64 -1
  %33 = load i32, ptr %32, align 4, !tbaa !182
  %34 = add i32 %33, 1
  store i32 %34, ptr %32, align 4, !tbaa !182
  ret ptr %5
}

; Function Attrs: mustprogress uwtable
define linkonce_odr hidden void @_ZN6vectorI6symbolLb0EjE6appendEjPKS0_(ptr noundef nonnull align 8 dereferenceable(8) %0, i32 noundef %1, ptr noundef %2) #4 comdat align 2 {
  %4 = alloca ptr, align 8
  %5 = alloca i32, align 4
  %6 = alloca ptr, align 8
  %7 = alloca i32, align 4
  store ptr %0, ptr %4, align 8, !tbaa !667
  store i32 %1, ptr %5, align 4, !tbaa !182
  store ptr %2, ptr %6, align 8, !tbaa !10
  %8 = load ptr, ptr %4, align 8
  call void @llvm.lifetime.start.p0(i64 4, ptr %7) #3
  store i32 0, ptr %7, align 4, !tbaa !182
  br label %9

9:                                                ; preds = %20, %3
  %10 = load i32, ptr %7, align 4, !tbaa !182
  %11 = load i32, ptr %5, align 4, !tbaa !182
  %12 = icmp ult i32 %10, %11
  br i1 %12, label %14, label %13

13:                                               ; preds = %9
  call void @llvm.lifetime.end.p0(i64 4, ptr %7) #3
  br label %23

14:                                               ; preds = %9
  %15 = load ptr, ptr %6, align 8, !tbaa !10
  %16 = load i32, ptr %7, align 4, !tbaa !182
  %17 = zext i32 %16 to i64
  %18 = getelementptr inbounds nuw %class.symbol, ptr %15, i64 %17
  %19 = call noundef nonnull align 8 dereferenceable(8) ptr @_ZN6vectorI6symbolLb0EjE9push_backERKS0_(ptr noundef nonnull align 8 dereferenceable(8) %8, ptr noundef nonnull align 8 dereferenceable(8) %18)
  br label %20

20:                                               ; preds = %14
  %21 = load i32, ptr %7, align 4, !tbaa !182
  %22 = add i32 %21, 1
  store i32 %22, ptr %7, align 4, !tbaa !182
  br label %9, !llvm.loop !669

23:                                               ; preds = %13
  ret void
}

; Function Attrs: mustprogress nounwind uwtable
define linkonce_odr hidden noundef ptr @_ZNK6bufferI6symbolLb1ELj16EE4dataEv(ptr noundef nonnull align 8 dereferenceable(144) %0) #8 comdat align 2 {
  %2 = alloca ptr, align 8
  store ptr %0, ptr %2, align 8, !tbaa !661
  %3 = load ptr, ptr %2, align 8
  %4 = getelementptr inbounds nuw %class.buffer.49, ptr %3, i32 0, i32 0
  %5 = load ptr, ptr %4, align 8, !tbaa !663
  ret ptr %5
}

; Function Attrs: mustprogress nounwind uwtable
define linkonce_odr hidden noundef i32 @_ZNK6bufferI6symbolLb1ELj16EE4sizeEv(ptr noundef nonnull align 8 dereferenceable(144) %0) #8 comdat align 2 {
  %2 = alloca ptr, align 8
  store ptr %0, ptr %2, align 8, !tbaa !661
  %3 = load ptr, ptr %2, align 8
  %4 = getelementptr inbounds nuw %class.buffer.49, ptr %3, i32 0, i32 1
  %5 = load i32, ptr %4, align 8, !tbaa !665
  ret i32 %5
}

; Function Attrs: mustprogress nounwind uwtable
define linkonce_odr hidden void @_ZN6bufferI6symbolLb1ELj16EEC2Ev(ptr noundef nonnull align 8 dereferenceable(144) %0) unnamed_addr #8 comdat align 2 {
  %2 = alloca ptr, align 8
  store ptr %0, ptr %2, align 8, !tbaa !661
  %3 = load ptr, ptr %2, align 8
  %4 = getelementptr inbounds nuw %class.buffer.49, ptr %3, i32 0, i32 0
  %5 = getelementptr inbounds nuw %class.buffer.49, ptr %3, i32 0, i32 3
  %6 = getelementptr inbounds [128 x i8], ptr %5, i64 0, i64 0
  store ptr %6, ptr %4, align 8, !tbaa !663
  %7 = getelementptr inbounds nuw %class.buffer.49, ptr %3, i32 0, i32 1
  store i32 0, ptr %7, align 8, !tbaa !665
  %8 = getelementptr inbounds nuw %class.buffer.49, ptr %3, i32 0, i32 2
  store i32 16, ptr %8, align 4, !tbaa !666
  ret void
}

; Function Attrs: mustprogress uwtable
define internal void @_ZN12_GLOBAL__N_110smt_solver10get_labelsER7svectorI6symboljE(ptr noundef nonnull align 8 dereferenceable(1808) %0, ptr noundef nonnull align 8 dereferenceable(8) %1) unnamed_addr #4 align 2 personality ptr @__gxx_personality_v0 {
  %3 = alloca ptr, align 8
  %4 = alloca ptr, align 8
  %5 = alloca %class.buffer.49, align 8
  %6 = alloca ptr, align 8
  %7 = alloca i32, align 4
  store ptr %0, ptr %3, align 8, !tbaa !12
  store ptr %1, ptr %4, align 8, !tbaa !190
  %8 = load ptr, ptr %3, align 8
  call void @llvm.lifetime.start.p0(i64 144, ptr %5) #3
  call void @_ZN6bufferI6symbolLb1ELj16EEC2Ev(ptr noundef nonnull align 8 dereferenceable(144) %5) #3
  %9 = getelementptr inbounds nuw %"class.(anonymous namespace)::smt_solver", ptr %8, i32 0, i32 2
  invoke void @_ZN3smt6kernel19get_relevant_labelsEP4exprR6bufferI6symbolLb1ELj16EE(ptr noundef nonnull align 8 dereferenceable(8) %9, ptr noundef null, ptr noundef nonnull align 8 dereferenceable(144) %5)
          to label %10 unwind label %17

10:                                               ; preds = %2
  %11 = load ptr, ptr %4, align 8, !tbaa !190
  %12 = invoke noundef i32 @_ZNK6bufferI6symbolLb1ELj16EE4sizeEv(ptr noundef nonnull align 8 dereferenceable(144) %5)
          to label %13 unwind label %17

13:                                               ; preds = %10
  %14 = invoke noundef ptr @_ZNK6bufferI6symbolLb1ELj16EE4dataEv(ptr noundef nonnull align 8 dereferenceable(144) %5)
          to label %15 unwind label %17

15:                                               ; preds = %13
  invoke void @_ZN6vectorI6symbolLb0EjE6appendEjPKS0_(ptr noundef nonnull align 8 dereferenceable(8) %11, i32 noundef %12, ptr noundef %14)
          to label %16 unwind label %17

16:                                               ; preds = %15
  call void @_ZN6bufferI6symbolLb1ELj16EED2Ev(ptr noundef nonnull align 8 dereferenceable(144) %5) #3
  call void @llvm.lifetime.end.p0(i64 144, ptr %5) #3
  ret void

17:                                               ; preds = %15, %13, %10, %2
  %18 = landingpad { ptr, i32 }
          cleanup
  %19 = extractvalue { ptr, i32 } %18, 0
  store ptr %19, ptr %6, align 8
  %20 = extractvalue { ptr, i32 } %18, 1
  store i32 %20, ptr %7, align 4
  call void @_ZN6bufferI6symbolLb1ELj16EED2Ev(ptr noundef nonnull align 8 dereferenceable(144) %5) #3
  call void @llvm.lifetime.end.p0(i64 144, ptr %5) #3
  br label %21

21:                                               ; preds = %17
  %22 = load ptr, ptr %6, align 8
  %23 = load i32, ptr %7, align 4
  %24 = insertvalue { ptr, i32 } poison, ptr %22, 0
  %25 = insertvalue { ptr, i32 } %24, i32 %23, 1
  resume { ptr, i32 } %25
}