; Function Attrs: mustprogress uwtable
define internal void @_ZN12_GLOBAL__N_110smt_solver10get_labelsER7svectorI6symboljE(ptr noundef nonnull align 8 dereferenceable(1808) %0, ptr noundef nonnull align 8 dereferenceable(8) %1) unnamed_addr #3 align 2 personality ptr @__gxx_personality_v0 {
  %3 = alloca %class.buffer.49, align 8
  call void @llvm.lifetime.start.p0(i64 144, ptr nonnull %3) #23
  %4 = getelementptr inbounds nuw i8, ptr %3, i64 16
  store ptr %4, ptr %3, align 8, !tbaa !337
  %5 = getelementptr inbounds nuw i8, ptr %3, i64 8
  store i32 0, ptr %5, align 8, !tbaa !340
  %6 = getelementptr inbounds nuw i8, ptr %3, i64 12
  store i32 16, ptr %6, align 4, !tbaa !341
  %7 = getelementptr inbounds nuw i8, ptr %0, i64 928
  invoke void @_ZN3smt6kernel19get_relevant_labelsEP4exprR6bufferI6symbolLb1ELj16EE(ptr noundef nonnull align 8 dereferenceable(8) %7, ptr noundef null, ptr noundef nonnull align 8 dereferenceable(144) %3)
          to label %8 unwind label %.loopexit.split-lp

8:                                                ; preds = %2
  %9 = load i32, ptr %5, align 8, !tbaa !340
  %10 = load ptr, ptr %3, align 8, !tbaa !337
  %.not.i = icmp eq i32 %9, 0
  br i1 %.not.i, label %_ZN6vectorI6symbolLb0EjE6appendEjPKS0_.exit, label %.lr.ph.preheader.i

.lr.ph.preheader.i:                               ; preds = %8
  %wide.trip.count.i = zext i32 %9 to i64
  %.pre.i = load ptr, ptr %1, align 8, !tbaa !342
  br label %.lr.ph.i

.lr.ph.i:                                         ; preds = %_ZN6vectorI6symbolLb0EjE9push_backERKS0_.exit.i, %.lr.ph.preheader.i
  %11 = phi ptr [ %.pre.i, %.lr.ph.preheader.i ], [ %21, %_ZN6vectorI6symbolLb0EjE9push_backERKS0_.exit.i ]
  %indvars.iv.i = phi i64 [ 0, %.lr.ph.preheader.i ], [ %indvars.iv.next.i, %_ZN6vectorI6symbolLb0EjE9push_backERKS0_.exit.i ]
  %12 = getelementptr inbounds nuw %class.symbol, ptr %10, i64 %indvars.iv.i
  %13 = icmp eq ptr %11, null
  br i1 %13, label %20, label %14

14:                                               ; preds = %.lr.ph.i
  %15 = getelementptr inbounds i8, ptr %11, i64 -4
  %16 = load i32, ptr %15, align 4, !tbaa !248
  %17 = getelementptr inbounds i8, ptr %11, i64 -8
  %18 = load i32, ptr %17, align 4, !tbaa !248
  %19 = icmp eq i32 %16, %18
  br i1 %19, label %20, label %_ZN6vectorI6symbolLb0EjE9push_backERKS0_.exit.i

20:                                               ; preds = %14, %.lr.ph.i
  invoke void @_ZN6vectorI6symbolLb0EjE13expand_vectorEv(ptr noundef nonnull align 8 dereferenceable(8) %1)
          to label %.noexc unwind label %.loopexit

.noexc:                                           ; preds = %20
  %.pre.i.i = load ptr, ptr %1, align 8, !tbaa !342
  %.phi.trans.insert.i.i = getelementptr inbounds i8, ptr %.pre.i.i, i64 -4
  %.pre2.i.i = load i32, ptr %.phi.trans.insert.i.i, align 4, !tbaa !248
  br label %_ZN6vectorI6symbolLb0EjE9push_backERKS0_.exit.i

_ZN6vectorI6symbolLb0EjE9push_backERKS0_.exit.i:  ; preds = %.noexc, %14
  %21 = phi ptr [ %.pre.i.i, %.noexc ], [ %11, %14 ]
  %22 = phi i32 [ %.pre2.i.i, %.noexc ], [ %16, %14 ]
  %23 = getelementptr inbounds i8, ptr %21, i64 -4
  %24 = zext i32 %22 to i64
  %25 = getelementptr inbounds nuw %class.symbol, ptr %21, i64 %24
  %26 = load i64, ptr %12, align 8, !tbaa !80
  store i64 %26, ptr %25, align 8, !tbaa !80
  %27 = add i32 %22, 1
  store i32 %27, ptr %23, align 4, !tbaa !248
  %indvars.iv.next.i = add nuw nsw i64 %indvars.iv.i, 1
  %exitcond.not.i = icmp eq i64 %indvars.iv.next.i, %wide.trip.count.i
  br i1 %exitcond.not.i, label %_ZN6vectorI6symbolLb0EjE6appendEjPKS0_.exit.loopexit, label %.lr.ph.i, !llvm.loop !344

_ZN6vectorI6symbolLb0EjE6appendEjPKS0_.exit.loopexit: ; preds = %_ZN6vectorI6symbolLb0EjE9push_backERKS0_.exit.i
  %.pre = load ptr, ptr %3, align 8, !tbaa !337
  br label %_ZN6vectorI6symbolLb0EjE6appendEjPKS0_.exit

_ZN6vectorI6symbolLb0EjE6appendEjPKS0_.exit:      ; preds = %_ZN6vectorI6symbolLb0EjE6appendEjPKS0_.exit.loopexit, %8
  %28 = phi ptr [ %.pre, %_ZN6vectorI6symbolLb0EjE6appendEjPKS0_.exit.loopexit ], [ %10, %8 ]
  %.not.i.i.i = icmp eq ptr %28, %4
  %29 = icmp eq ptr %28, null
  %or.cond.i.i.i = or i1 %.not.i.i.i, %29
  br i1 %or.cond.i.i.i, label %_ZN6bufferI6symbolLb1ELj16EED2Ev.exit, label %30

30:                                               ; preds = %_ZN6vectorI6symbolLb0EjE6appendEjPKS0_.exit
  invoke void @_ZN6memory10deallocateEPv(ptr noundef nonnull %28)
          to label %_ZN6bufferI6symbolLb1ELj16EED2Ev.exit unwind label %31

31:                                               ; preds = %30
  %32 = landingpad { ptr, i32 }
          catch ptr null
  %33 = extractvalue { ptr, i32 } %32, 0
  call void @__clang_call_terminate(ptr %33) #25
  unreachable

_ZN6bufferI6symbolLb1ELj16EED2Ev.exit:            ; preds = %_ZN6vectorI6symbolLb0EjE6appendEjPKS0_.exit, %30
  call void @llvm.lifetime.end.p0(i64 144, ptr nonnull %3) #23
  ret void

.loopexit:                                        ; preds = %20
  %lpad.loopexit = landingpad { ptr, i32 }
          cleanup
  br label %34

.loopexit.split-lp:                               ; preds = %2
  %lpad.loopexit.split-lp = landingpad { ptr, i32 }
          cleanup
  br label %34

34:                                               ; preds = %.loopexit.split-lp, %.loopexit
  %lpad.phi = phi { ptr, i32 } [ %lpad.loopexit, %.loopexit ], [ %lpad.loopexit.split-lp, %.loopexit.split-lp ]
  call void @_ZN6bufferI6symbolLb1ELj16EED2Ev(ptr noundef nonnull align 8 dereferenceable(144) %3) #23
  call void @llvm.lifetime.end.p0(i64 144, ptr nonnull %3) #23
  resume { ptr, i32 } %lpad.phi
}